; Function Attrs: nounwind uwtable
define ptr @l___private_Lean_Meta_Tactic_Grind_Split_0__Lean_Meta_Grind_selectNextSplit_x3f___lambda__1(ptr readnone captures(none) %0, ptr noundef %1, ptr noundef %2, ptr noundef %3, ptr noundef %4, ptr noundef %5, ptr noundef %6, ptr noundef %7, ptr noundef %8, ptr noundef %9) local_unnamed_addr #0 {
  %11 = tail call ptr @lean_st_ref_get(ptr noundef %1, ptr noundef %9) #4
  %12 = getelementptr inbounds nuw i8, ptr %11, i64 8
  %13 = load ptr, ptr %12, align 8, !tbaa !4
  %14 = ptrtoint ptr %13 to i64
  %15 = and i64 %14, 1
  %.not = icmp eq i64 %15, 0
  br i1 %.not, label %16, label %lean_inc.exit30

16:                                               ; preds = %10
  %.val.i = load i32, ptr %13, align 4, !tbaa !10
  %17 = icmp sgt i32 %.val.i, 0
  br i1 %17, label %18, label %20, !prof !13

18:                                               ; preds = %16
  %19 = add nuw i32 %.val.i, 1
  store i32 %19, ptr %13, align 4, !tbaa !10
  br label %lean_inc.exit30

20:                                               ; preds = %16
  %.not.i35 = icmp eq i32 %.val.i, 0
  br i1 %.not.i35, label %lean_inc.exit30, label %21

21:                                               ; preds = %20
  tail call void @lean_inc_ref_cold(ptr noundef nonnull %13) #4
  br label %lean_inc.exit30

lean_inc.exit30:                                  ; preds = %21, %20, %18, %10
  %22 = getelementptr inbounds nuw i8, ptr %11, i64 16
  %23 = load ptr, ptr %22, align 8, !tbaa !4
  %24 = ptrtoint ptr %23 to i64
  %25 = and i64 %24, 1
  %.not45 = icmp eq i64 %25, 0
  br i1 %.not45, label %26, label %lean_inc.exit29

26:                                               ; preds = %lean_inc.exit30
  %.val.i36 = load i32, ptr %23, align 4, !tbaa !10
  %27 = icmp sgt i32 %.val.i36, 0
  br i1 %27, label %28, label %30, !prof !13

28:                                               ; preds = %26
  %29 = add nuw i32 %.val.i36, 1
  store i32 %29, ptr %23, align 4, !tbaa !10
  br label %lean_inc.exit29

30:                                               ; preds = %26
  %.not.i37 = icmp eq i32 %.val.i36, 0
  br i1 %.not.i37, label %lean_inc.exit29, label %31

31:                                               ; preds = %30
  tail call void @lean_inc_ref_cold(ptr noundef nonnull %23) #4
  br label %lean_inc.exit29

lean_inc.exit29:                                  ; preds = %31, %30, %28, %lean_inc.exit30
  %32 = ptrtoint ptr %11 to i64
  %33 = and i64 %32, 1
  %.not46 = icmp eq i64 %33, 0
  br i1 %.not46, label %34, label %lean_dec.exit27

34:                                               ; preds = %lean_inc.exit29
  %35 = load i32, ptr %11, align 4, !tbaa !10
  %36 = icmp sgt i32 %35, 1
  br i1 %36, label %37, label %39, !prof !13

37:                                               ; preds = %34
  %38 = add nsw i32 %35, -1
  store i32 %38, ptr %11, align 4, !tbaa !10
  br label %lean_dec.exit27

39:                                               ; preds = %34
  %.not.i = icmp eq i32 %35, 0
  br i1 %.not.i, label %lean_dec.exit27, label %40

40:                                               ; preds = %39
  tail call void @lean_dec_ref_cold(ptr noundef nonnull %11) #4
  br label %lean_dec.exit27

lean_dec.exit27:                                  ; preds = %40, %39, %37, %lean_inc.exit29
  %41 = getelementptr inbounds nuw i8, ptr %13, i64 112
  %42 = load ptr, ptr %41, align 8, !tbaa !4
  %43 = ptrtoint ptr %42 to i64
  %44 = and i64 %43, 1
  %.not47 = icmp eq i64 %44, 0
  br i1 %.not47, label %45, label %lean_inc.exit28

45:                                               ; preds = %lean_dec.exit27
  %.val.i39 = load i32, ptr %42, align 4, !tbaa !10
  %46 = icmp sgt i32 %.val.i39, 0
  br i1 %46, label %47, label %49, !prof !13

47:                                               ; preds = %45
  %48 = add nuw i32 %.val.i39, 1
  store i32 %48, ptr %42, align 4, !tbaa !10
  br label %lean_inc.exit28

49:                                               ; preds = %45
  %.not.i40 = icmp eq i32 %.val.i39, 0
  br i1 %.not.i40, label %lean_inc.exit28, label %50

50:                                               ; preds = %49
  tail call void @lean_inc_ref_cold(ptr noundef nonnull %42) #4
  br label %lean_inc.exit28

lean_inc.exit28:                                  ; preds = %50, %49, %47, %lean_dec.exit27
  br i1 %.not, label %51, label %lean_dec.exit26

51:                                               ; preds = %lean_inc.exit28
  %52 = load i32, ptr %13, align 4, !tbaa !10
  %53 = icmp sgt i32 %52, 1
  br i1 %53, label %54, label %56, !prof !13

54:                                               ; preds = %51
  %55 = add nsw i32 %52, -1
  store i32 %55, ptr %13, align 4, !tbaa !10
  br label %lean_dec.exit26

56:                                               ; preds = %51
  %.not.i31 = icmp eq i32 %52, 0
  br i1 %.not.i31, label %lean_dec.exit26, label %57

57:                                               ; preds = %56
  tail call void @lean_dec_ref_cold(ptr noundef nonnull %13) #4
  br label %lean_dec.exit26

lean_dec.exit26:                                  ; preds = %57, %56, %54, %lean_inc.exit28
  %58 = getelementptr inbounds nuw i8, ptr %42, i64 24
  %59 = load ptr, ptr %58, align 8, !tbaa !4
  %60 = ptrtoint ptr %59 to i64
  %61 = and i64 %60, 1
  %.not48 = icmp eq i64 %61, 0
  br i1 %.not48, label %62, label %lean_inc.exit

62:                                               ; preds = %lean_dec.exit26
  %.val.i42 = load i32, ptr %59, align 4, !tbaa !10
  %63 = icmp sgt i32 %.val.i42, 0
  br i1 %63, label %64, label %66, !prof !13

64:                                               ; preds = %62
  %65 = add nuw i32 %.val.i42, 1
  store i32 %65, ptr %59, align 4, !tbaa !10
  br label %lean_inc.exit

66:                                               ; preds = %62
  %.not.i43 = icmp eq i32 %.val.i42, 0
  br i1 %.not.i43, label %lean_inc.exit, label %67

67:                                               ; preds = %66
  tail call void @lean_inc_ref_cold(ptr noundef nonnull %59) #4
  br label %lean_inc.exit

lean_inc.exit:                                    ; preds = %67, %66, %64, %lean_dec.exit26
  br i1 %.not47, label %68, label %lean_dec.exit

68:                                               ; preds = %lean_inc.exit
  %69 = load i32, ptr %42, align 4, !tbaa !10
  %70 = icmp sgt i32 %69, 1
  br i1 %70, label %71, label %73, !prof !13

71:                                               ; preds = %68
  %72 = add nsw i32 %69, -1
  store i32 %72, ptr %42, align 4, !tbaa !10
  br label %lean_dec.exit

73:                                               ; preds = %68
  %.not.i33 = icmp eq i32 %69, 0
  br i1 %.not.i33, label %lean_dec.exit, label %74

74:                                               ; preds = %73
  tail call void @lean_dec_ref_cold(ptr noundef nonnull %42) #4
  br label %lean_dec.exit

lean_dec.exit:                                    ; preds = %74, %73, %71, %lean_inc.exit
  %75 = tail call ptr @l___private_Lean_Meta_Tactic_Grind_Split_0__Lean_Meta_Grind_selectNextSplit_x3f_go(ptr noundef %59, ptr noundef nonnull inttoptr (i64 1 to ptr), ptr noundef nonnull inttoptr (i64 1 to ptr), ptr noundef %1, ptr noundef %2, ptr noundef %3, ptr noundef %4, ptr noundef %5, ptr noundef %6, ptr noundef %7, ptr noundef %8, ptr noundef %23)
  ret ptr %75
}